(lp0
VBergenfield
p1
aVBogota
p2
aVEdgewater
p3
aVEnglewood
p4
aVFort Lee
p5
aVHackensack
p6
aVLeonia
p7
aVLittle Ferry
p8
aVMaywood
p9
aVNew Milford
p10
aVPalisades Park
p11
aVRidgefield Park
p12
aVRiver Edge
p13
aVTeaneck
p14
a.